ccopy_reg
_reconstructor
p0
(cindicoio.custom.custom
Collection
p1
c__builtin__
object
p2
Ntp3
Rp4
(dp5
S'keywords'
p6
(dp7
S'shared'
p8
NsS'domain'
p9
NsS'collection'
p10
S'clothes_collection_1'
p11
ssb.